; Function Attrs: nounwind uwtable
define dso_local i64 @pg_database_size_name(ptr noundef captures(none) %0) local_unnamed_addr #0 {
  %2 = getelementptr inbounds nuw i8, ptr %0, i64 32
  %3 = load i64, ptr %2, align 8
  %4 = inttoptr i64 %3 to ptr
  %5 = tail call i32 @get_database_oid(ptr noundef %4, i1 noundef zeroext false) #9
  %6 = tail call fastcc i64 @calculate_database_size(i32 noundef %5)
  %7 = icmp eq i64 %6, 0
  br i1 %7, label %8, label %10

8:                                                ; preds = %1
  %9 = getelementptr inbounds nuw i8, ptr %0, i64 28
  store i8 1, ptr %9, align 4
  br label %10

10:                                               ; preds = %1, %8
  ret i64 %6
}